; Function Attrs: mustprogress nounwind uwtable
define void @_ZNK4LIEF5MachO14SegmentCommand6streamEv(ptr dead_on_unwind noalias writable writeonly sret(%"class.std::unique_ptr.25") align 8 captures(none) initializes((0, 8)) %0, ptr noundef nonnull readonly align 8 captures(none) dereferenceable(216) %1) local_unnamed_addr #0 align 2 {
  %3 = getelementptr inbounds nuw i8, ptr %1, i64 144
  %4 = load ptr, ptr %3, align 8, !tbaa !49
  %5 = getelementptr inbounds nuw i8, ptr %1, i64 152
  %6 = load ptr, ptr %5, align 8, !tbaa !52
  %7 = ptrtoint ptr %6 to i64
  %8 = ptrtoint ptr %4 to i64
  %9 = sub i64 %7, %8
  tail call void @llvm.experimental.noalias.scope.decl(metadata !119)
  %10 = tail call noalias noundef nonnull dereferenceable(40) ptr @_Znwm(i64 noundef 40) #27, !noalias !119
  %11 = getelementptr inbounds nuw i8, ptr %10, i64 8
  store i64 0, ptr %11, align 8, !tbaa !122, !noalias !119
  %12 = getelementptr inbounds nuw i8, ptr %10, i64 16
  store i8 0, ptr %12, align 8, !tbaa !126, !noalias !119
  %13 = getelementptr inbounds nuw i8, ptr %10, i64 20
  store i32 3, ptr %13, align 4, !tbaa !127, !noalias !119
  store ptr getelementptr inbounds nuw inrange(-16, 104) (i8, ptr @_ZTVN4LIEF10SpanStreamE, i64 16), ptr %10, align 8, !tbaa !17, !noalias !119
  %14 = getelementptr inbounds nuw i8, ptr %10, i64 24
  store ptr %4, ptr %14, align 8, !tbaa !128, !noalias !119
  %15 = getelementptr inbounds nuw i8, ptr %10, i64 32
  store i64 %9, ptr %15, align 8, !tbaa !130, !noalias !119
  store ptr %10, ptr %0, align 8, !tbaa !131, !alias.scope !119
  ret void
}